	.file	"memory.c"
	.text
.Ltext0:
	.file 0 "/home/user/Lab/programming/heap" "heap/memory.c"
	.globl	memcopy
	.type	memcopy, @function
memcopy:
.LFB0:
	.file 1 "heap/memory.c"
	.loc 1 4 1
	.cfi_startproc
	endbr64
	pushq	%rbp
	.cfi_def_cfa_offset 16
	.cfi_offset 6, -16
	movq	%rsp, %rbp
	.cfi_def_cfa_register 6
	movq	%rdi, -24(%rbp)
	movq	%rsi, -32(%rbp)
	movq	%rdx, -40(%rbp)
	.loc 1 5 8
	movq	$0, -8(%rbp)
	.loc 1 6 7
	jmp	.L2
.L3:
	.loc 1 8 33
	movq	-32(%rbp), %rdx
	movq	-8(%rbp), %rax
	addq	%rdx, %rax
	.loc 1 8 15
	movq	-24(%rbp), %rcx
	movq	-8(%rbp), %rdx
	addq	%rcx, %rdx
	.loc 1 8 21
	movzbl	(%rax), %eax
	.loc 1 8 19
	movb	%al, (%rdx)
	.loc 1 9 4
	addq	$1, -8(%rbp)
.L2:
	.loc 1 6 10
	movq	-8(%rbp), %rax
	cmpq	-40(%rbp), %rax
	jb	.L3
	.loc 1 11 1
	nop
	nop
	popq	%rbp
	.cfi_def_cfa 7, 8
	ret
	.cfi_endproc
.LFE0:
	.size	memcopy, .-memcopy
	.globl	memfill
	.type	memfill, @function
memfill:
.LFB1:
	.loc 1 13 1
	.cfi_startproc
	endbr64
	pushq	%rbp
	.cfi_def_cfa_offset 16
	.cfi_offset 6, -16
	movq	%rsp, %rbp
	.cfi_def_cfa_register 6
	movq	%rdi, -24(%rbp)
	movl	%esi, %eax
	movq	%rdx, -40(%rbp)
	movb	%al, -28(%rbp)
	.loc 1 14 8
	movq	-24(%rbp), %rax
	movq	%rax, -8(%rbp)
	.loc 1 16 10
	jmp	.L5
.L6:
	.loc 1 18 13
	movq	-8(%rbp), %rax
	leaq	1(%rax), %rdx
	movq	%rdx, -8(%rbp)
	.loc 1 18 16
	movzbl	-28(%rbp), %edx
	movb	%dl, (%rax)
.L5:
	.loc 1 16 15
	movq	-40(%rbp), %rax
	leaq	-1(%rax), %rdx
	movq	%rdx, -40(%rbp)
	.loc 1 16 11
	testq	%rax, %rax
	jne	.L6
	.loc 1 20 1
	nop
	nop
	popq	%rbp
	.cfi_def_cfa 7, 8
	ret
	.cfi_endproc
.LFE1:
	.size	memfill, .-memfill
	.section	.rodata
.LC0:
	.string	"\n<start %p (size=%lu)>\n"
.LC1:
	.string	"%x "
.LC2:
	.string	"\n<end %p>\n\n"
	.text
	.globl	print_buffer
	.type	print_buffer, @function
print_buffer:
.LFB2:
	.loc 1 23 1
	.cfi_startproc
	endbr64
	pushq	%rbp
	.cfi_def_cfa_offset 16
	.cfi_offset 6, -16
	movq	%rsp, %rbp
	.cfi_def_cfa_register 6
	subq	$32, %rsp
	movq	%rdi, -24(%rbp)
	movq	%rsi, -32(%rbp)
	.loc 1 24 2
	movq	-32(%rbp), %rdx
	movq	-24(%rbp), %rax
	movq	%rax, %rsi
	leaq	.LC0(%rip), %rax
	movq	%rax, %rdi
	movl	$0, %eax
	call	printf@PLT
	.loc 1 25 8
	movq	$0, -8(%rbp)
	.loc 1 26 7
	jmp	.L8
.L9:
	.loc 1 28 38
	movq	-24(%rbp), %rdx
	movq	-8(%rbp), %rax
	addq	%rdx, %rax
	movzbl	(%rax), %eax
	.loc 1 28 3
	movzbl	%al, %eax
	movl	%eax, %esi
	leaq	.LC1(%rip), %rax
	movq	%rax, %rdi
	movl	$0, %eax
	call	printf@PLT
	.loc 1 29 4
	addq	$1, -8(%rbp)
.L8:
	.loc 1 26 10
	movq	-8(%rbp), %rax
	cmpq	-32(%rbp), %rax
	jb	.L9
	.loc 1 31 2
	movq	-24(%rbp), %rdx
	movq	-32(%rbp), %rax
	addq	%rdx, %rax
	movq	%rax, %rsi
	leaq	.LC2(%rip), %rax
	movq	%rax, %rdi
	movl	$0, %eax
	call	printf@PLT
	.loc 1 32 1
	nop
	leave
	.cfi_def_cfa 7, 8
	ret
	.cfi_endproc
.LFE2:
	.size	print_buffer, .-print_buffer
	.globl	stringlength
	.type	stringlength, @function
stringlength:
.LFB3:
	.loc 1 35 1
	.cfi_startproc
	endbr64
	pushq	%rbp
	.cfi_def_cfa_offset 16
	.cfi_offset 6, -16
	movq	%rsp, %rbp
	.cfi_def_cfa_register 6
	movq	%rdi, -24(%rbp)
	.loc 1 36 8
	movq	$0, -8(%rbp)
	.loc 1 38 7
	jmp	.L11
.L12:
	.loc 1 40 4
	addq	$1, -8(%rbp)
.L11:
	.loc 1 38 12
	movq	-24(%rbp), %rax
	leaq	1(%rax), %rdx
	movq	%rdx, -24(%rbp)
	.loc 1 38 8
	movzbl	(%rax), %eax
	testb	%al, %al
	jne	.L12
	.loc 1 43 9
	movq	-8(%rbp), %rax
	.loc 1 44 1
	popq	%rbp
	.cfi_def_cfa 7, 8
	ret
	.cfi_endproc
.LFE3:
	.size	stringlength, .-stringlength
.Letext0:
	.file 2 "heap/memory.h"
	.file 3 "/usr/include/stdio.h"
	.section	.note.GNU-stack,"",@progbits
	.section	.note.gnu.property,"a"
	.align 8
	.long	1f - 0f
	.long	4f - 1f
	.long	5
0:
	.string	"GNU"
1:
	.align 8
	.long	0xc0000002
	.long	3f - 2f
2:
	.long	0x3
3:
	.align 8
4:
