	.file	"heap.c"
	.text
.Ltext0:
	.file 0 "/home/user/Lab/programming/heap" "heap/heap.c"
	.globl	halloc_heap_state
	.bss
	.align 32
	.type	halloc_heap_state, @object
	.size	halloc_heap_state, 968
halloc_heap_state:
	.zero	968
	.text
	.globl	abortError
	.type	abortError, @function
abortError:
.LFB6:
	.file 1 "heap/heap.c"
	.loc 1 69 1
	.cfi_startproc
	endbr64
	pushq	%rbp
	.cfi_def_cfa_offset 16
	.cfi_offset 6, -16
	movq	%rsp, %rbp
	.cfi_def_cfa_register 6
	subq	$16, %rsp
	movq	%rdi, -8(%rbp)
	movq	%rsi, -16(%rbp)
	.loc 1 70 2
	movq	stderr(%rip), %rdx
	movq	-8(%rbp), %rax
	movq	%rdx, %rsi
	movq	%rax, %rdi
	call	fputs@PLT
	.loc 1 71 2
	movq	-16(%rbp), %rax
	movq	%rax, %rdi
	call	perror@PLT
	.loc 1 72 2
	movl	$10, %edi
	call	putchar@PLT
	.loc 1 73 2
	call	abort@PLT
	.cfi_endproc
.LFE6:
	.size	abortError, .-abortError
	.section	.rodata
.LC0:
	.string	"couldn't not extend the heap"
	.text
	.globl	extendHeap
	.type	extendHeap, @function
extendHeap:
.LFB7:
	.loc 1 77 1
	.cfi_startproc
	endbr64
	pushq	%rbp
	.cfi_def_cfa_offset 16
	.cfi_offset 6, -16
	movq	%rsp, %rbp
	.cfi_def_cfa_register 6
	subq	$32, %rsp
	movq	%rdi, -24(%rbp)
	.loc 1 78 16
	movq	-24(%rbp), %rax
	movq	%rax, %rsi
	leaq	432+halloc_heap_state(%rip), %rax
	movq	%rax, %rdi
	call	mmem_extend@PLT
	movl	%eax, -4(%rbp)
	.loc 1 79 4
	cmpl	$2, -4(%rbp)
	jne	.L3
	.loc 1 81 3
	leaq	.LC0(%rip), %rax
	movq	%rax, %rdi
	call	stringlength@PLT
	movq	%rax, %rdx
	leaq	.LC0(%rip), %rax
	movq	%rax, %rsi
	leaq	464+halloc_heap_state(%rip), %rax
	movq	%rax, %rdi
	call	memcopy@PLT
.L3:
	.loc 1 83 9
	movl	-4(%rbp), %eax
	.loc 1 84 1
	leave
	.cfi_def_cfa 7, 8
	ret
	.cfi_endproc
.LFE7:
	.size	extendHeap, .-extendHeap
	.globl	initHeap
	.type	initHeap, @function
initHeap:
.LFB8:
	.loc 1 87 1
	.cfi_startproc
	endbr64
	pushq	%rbp
	.cfi_def_cfa_offset 16
	.cfi_offset 6, -16
	movq	%rsp, %rbp
	.cfi_def_cfa_register 6
	subq	$48, %rsp
	.loc 1 87 1
	movq	%fs:40, %rax
	movq	%rax, -8(%rbp)
	xorl	%eax, %eax
	.loc 1 88 29
	leaq	-48(%rbp), %rax
	movq	%rax, %rdi
	movl	$0, %eax
	call	mmem_createMemorySpace@PLT
	movq	-48(%rbp), %rax
	movq	-40(%rbp), %rdx
	movq	%rax, 432+halloc_heap_state(%rip)
	movq	%rdx, 440+halloc_heap_state(%rip)
	movq	-32(%rbp), %rax
	movq	-24(%rbp), %rdx
	movq	%rax, 448+halloc_heap_state(%rip)
	movq	%rdx, 456+halloc_heap_state(%rip)
	.loc 1 89 59
	movq	440+halloc_heap_state(%rip), %rax
	.loc 1 89 33
	movq	%rax, halloc_heap_state(%rip)
	.loc 1 90 61
	movq	440+halloc_heap_state(%rip), %rax
	.loc 1 90 35
	movq	%rax, 8+halloc_heap_state(%rip)
	.loc 1 91 1
	nop
	movq	-8(%rbp), %rax
	subq	%fs:40, %rax
	je	.L6
	call	__stack_chk_fail@PLT
.L6:
	leave
	.cfi_def_cfa 7, 8
	ret
	.cfi_endproc
.LFE8:
	.size	initHeap, .-initHeap
	.globl	add_heap_chunk
	.type	add_heap_chunk, @function
add_heap_chunk:
.LFB9:
	.loc 1 94 1
	.cfi_startproc
	endbr64
	pushq	%rbp
	.cfi_def_cfa_offset 16
	.cfi_offset 6, -16
	movq	%rsp, %rbp
	.cfi_def_cfa_register 6
	movq	%rdi, -8(%rbp)
	.loc 1 95 22
	movq	424+halloc_heap_state(%rip), %rax
	.loc 1 95 4
	cmpq	$49, %rax
	jg	.L9
	.loc 1 97 45
	movq	424+halloc_heap_state(%rip), %rax
	.loc 1 97 58
	addq	$2, %rax
	leaq	0(,%rax,8), %rcx
	leaq	8+halloc_heap_state(%rip), %rdx
	movq	-8(%rbp), %rax
	movq	%rax, (%rcx,%rdx)
	.loc 1 98 20
	movq	424+halloc_heap_state(%rip), %rax
	.loc 1 98 31
	addq	$1, %rax
	movq	%rax, 424+halloc_heap_state(%rip)
.L9:
	.loc 1 101 1
	nop
	popq	%rbp
	.cfi_def_cfa 7, 8
	ret
	.cfi_endproc
.LFE9:
	.size	add_heap_chunk, .-add_heap_chunk
	.section	.rodata
.LC1:
	.string	"The heap starting at <%p>\n"
	.align 8
.LC2:
	.string	"\tchunk [%lu] <%p-%p> (size=%lu, prev_size=%lu, used=%u, alloc_base=%p, fd=%p, bk=%p)\n"
.LC3:
	.string	"\tWilderness pointer : <%p>\n"
.LC4:
	.string	"End of the heap (size=%lu)\n"
	.text
	.globl	print_heap
	.type	print_heap, @function
print_heap:
.LFB10:
	.loc 1 104 1
	.cfi_startproc
	endbr64
	pushq	%rbp
	.cfi_def_cfa_offset 16
	.cfi_offset 6, -16
	movq	%rsp, %rbp
	.cfi_def_cfa_register 6
	subq	$48, %rsp
	movl	%edi, %eax
	movw	%ax, -36(%rbp)
	.loc 1 105 2
	movq	halloc_heap_state(%rip), %rax
	movq	%rax, %rsi
	leaq	.LC1(%rip), %rax
	movq	%rax, %rdi
	movl	$0, %eax
	call	printf@PLT
.LBB2:
	.loc 1 106 12
	movq	$0, -24(%rbp)
	.loc 1 106 2
	jmp	.L11
.L13:
.LBB3:
	.loc 1 108 11
	movq	-24(%rbp), %rax
	addq	$2, %rax
	leaq	0(,%rax,8), %rdx
	leaq	8+halloc_heap_state(%rip), %rax
	movq	(%rdx,%rax), %rax
	movq	%rax, -16(%rbp)
	.loc 1 109 9
	movq	-16(%rbp), %rax
	movq	(%rax), %rax
	movq	%rax, -8(%rbp)
	.loc 1 110 8
	movq	-16(%rbp), %rax
	movzbl	25(%rax), %eax
	movb	%al, -25(%rbp)
	.loc 1 111 3
	movq	-16(%rbp), %rax
	movq	48(%rax), %r9
	movq	-16(%rbp), %rax
	movq	40(%rax), %r8
	movq	-16(%rbp), %rax
	movq	32(%rax), %rdi
	movsbl	-25(%rbp), %esi
	movq	-16(%rbp), %rax
	movq	16(%rax), %r11
	.loc 1 111 157
	movq	-24(%rbp), %rax
	addq	$2, %rax
	leaq	0(,%rax,8), %rdx
	leaq	8+halloc_heap_state(%rip), %rax
	movq	(%rdx,%rax), %rdx
	.loc 1 111 3
	movq	-8(%rbp), %rax
	leaq	(%rdx,%rax), %rcx
	movq	-24(%rbp), %rax
	addq	$2, %rax
	leaq	0(,%rax,8), %rdx
	leaq	8+halloc_heap_state(%rip), %rax
	movq	(%rdx,%rax), %rdx
	movq	-8(%rbp), %r10
	movq	-24(%rbp), %rax
	pushq	%r9
	pushq	%r8
	pushq	%rdi
	pushq	%rsi
	movq	%r11, %r9
	movq	%r10, %r8
	movq	%rax, %rsi
	leaq	.LC2(%rip), %rax
	movq	%rax, %rdi
	movl	$0, %eax
	call	printf@PLT
	addq	$32, %rsp
	.loc 1 112 5
	cmpw	$0, -36(%rbp)
	je	.L12
	.loc 1 114 41
	movq	-24(%rbp), %rax
	addq	$2, %rax
	leaq	0(,%rax,8), %rdx
	leaq	8+halloc_heap_state(%rip), %rax
	movq	(%rdx,%rax), %rax
	.loc 1 114 4
	movq	-8(%rbp), %rdx
	movq	%rdx, %rsi
	movq	%rax, %rdi
	call	print_buffer@PLT
.L12:
.LBE3:
	.loc 1 106 56 discriminator 2
	addq	$1, -24(%rbp)
.L11:
	.loc 1 106 41 discriminator 1
	movq	424+halloc_heap_state(%rip), %rax
	.loc 1 106 22 discriminator 1
	cmpq	%rax, -24(%rbp)
	jb	.L13
.LBE2:
	.loc 1 118 2
	movq	8+halloc_heap_state(%rip), %rax
	movq	%rax, %rsi
	leaq	.LC3(%rip), %rax
	movq	%rax, %rdi
	movl	$0, %eax
	call	printf@PLT
	.loc 1 119 58
	movq	8+halloc_heap_state(%rip), %rax
	.loc 1 119 91
	movq	halloc_heap_state(%rip), %rdx
	.loc 1 119 2
	subq	%rdx, %rax
	movq	%rax, %rsi
	leaq	.LC4(%rip), %rax
	movq	%rax, %rdi
	movl	$0, %eax
	call	printf@PLT
	.loc 1 120 1
	nop
	leave
	.cfi_def_cfa 7, 8
	ret
	.cfi_endproc
.LFE10:
	.size	print_heap, .-print_heap
	.globl	chunk_end_wilderness_offset
	.type	chunk_end_wilderness_offset, @function
chunk_end_wilderness_offset:
.LFB11:
	.loc 1 122 1
	.cfi_startproc
	endbr64
	pushq	%rbp
	.cfi_def_cfa_offset 16
	.cfi_offset 6, -16
	movq	%rsp, %rbp
	.cfi_def_cfa_register 6
	movq	%rdi, -24(%rbp)
	.loc 1 123 41
	movq	8+halloc_heap_state(%rip), %rax
	.loc 1 123 17
	movq	%rax, %rdx
	.loc 1 123 59
	movq	-24(%rbp), %rax
	.loc 1 123 57
	subq	%rax, %rdx
	.loc 1 123 79
	movq	-24(%rbp), %rax
	movq	(%rax), %rcx
	.loc 1 123 8
	movq	%rdx, %rax
	subq	%rcx, %rax
	movq	%rax, -8(%rbp)
	.loc 1 124 9
	movq	-8(%rbp), %rax
	.loc 1 125 1
	popq	%rbp
	.cfi_def_cfa 7, 8
	ret
	.cfi_endproc
.LFE11:
	.size	chunk_end_wilderness_offset, .-chunk_end_wilderness_offset
	.globl	empty_bin_list
	.type	empty_bin_list, @function
empty_bin_list:
.LFB12:
	.loc 1 128 1
	.cfi_startproc
	endbr64
	pushq	%rbp
	.cfi_def_cfa_offset 16
	.cfi_offset 6, -16
	movq	%rsp, %rbp
	.cfi_def_cfa_register 6
	.loc 1 129 10
	movq	halloc_heap_state(%rip), %rax
	movq	%rax, -8(%rbp)
	.loc 1 131 7
	jmp	.L17
.L20:
	.loc 1 133 9
	movq	-8(%rbp), %rax
	movzbl	25(%rax), %eax
	.loc 1 133 5
	testb	%al, %al
	jne	.L18
	.loc 1 135 10
	movl	$0, %eax
	jmp	.L19
.L18:
	.loc 1 137 43
	movq	-8(%rbp), %rax
	movq	(%rax), %rdx
	.loc 1 137 20
	movq	-8(%rbp), %rax
	.loc 1 137 31
	addq	%rdx, %rax
	.loc 1 137 7
	movq	%rax, -8(%rbp)
.L17:
	.loc 1 131 41
	movq	8+halloc_heap_state(%rip), %rax
	.loc 1 131 20
	cmpq	%rax, -8(%rbp)
	jb	.L20
	.loc 1 139 8
	movl	$1, %eax
.L19:
	.loc 1 140 1
	popq	%rbp
	.cfi_def_cfa 7, 8
	ret
	.cfi_endproc
.LFE12:
	.size	empty_bin_list, .-empty_bin_list
	.globl	first_bin_list
	.type	first_bin_list, @function
first_bin_list:
.LFB13:
	.loc 1 144 1
	.cfi_startproc
	endbr64
	pushq	%rbp
	.cfi_def_cfa_offset 16
	.cfi_offset 6, -16
	movq	%rsp, %rbp
	.cfi_def_cfa_register 6
	subq	$16, %rsp
	.loc 1 145 5
	movl	$0, %eax
	call	empty_bin_list
	.loc 1 145 4
	testb	%al, %al
	je	.L22
	.loc 1 147 9
	movl	$0, %eax
	jmp	.L23
.L22:
	.loc 1 149 10
	movq	halloc_heap_state(%rip), %rax
	movq	%rax, -8(%rbp)
	.loc 1 151 7
	jmp	.L24
.L26:
	.loc 1 153 9
	movq	-8(%rbp), %rax
	movzbl	25(%rax), %eax
	.loc 1 153 5
	testb	%al, %al
	jne	.L25
	.loc 1 153 27 discriminator 1
	movq	-8(%rbp), %rax
	movq	48(%rax), %rax
	.loc 1 153 21 discriminator 1
	testq	%rax, %rax
	jne	.L25
	.loc 1 155 11
	movq	-8(%rbp), %rax
	jmp	.L23
.L25:
	.loc 1 157 43
	movq	-8(%rbp), %rax
	movq	(%rax), %rdx
	.loc 1 157 20
	movq	-8(%rbp), %rax
	.loc 1 157 31
	addq	%rdx, %rax
	.loc 1 157 7
	movq	%rax, -8(%rbp)
.L24:
	.loc 1 151 41
	movq	8+halloc_heap_state(%rip), %rax
	.loc 1 151 20
	cmpq	%rax, -8(%rbp)
	jb	.L26
	.loc 1 159 8
	movl	$0, %eax
.L23:
	.loc 1 161 1
	leave
	.cfi_def_cfa 7, 8
	ret
	.cfi_endproc
.LFE13:
	.size	first_bin_list, .-first_bin_list
	.section	.rodata
.LC5:
	.string	"Bin list is empty"
.LC6:
	.string	"binlist end = %p\n"
.LC7:
	.string	"binlist : %p\n"
	.text
	.globl	print_bin_list
	.type	print_bin_list, @function
print_bin_list:
.LFB14:
	.loc 1 164 1
	.cfi_startproc
	endbr64
	pushq	%rbp
	.cfi_def_cfa_offset 16
	.cfi_offset 6, -16
	movq	%rsp, %rbp
	.cfi_def_cfa_register 6
	subq	$16, %rsp
	.loc 1 165 16
	movl	$0, %eax
	call	first_bin_list
	movq	%rax, -8(%rbp)
	.loc 1 167 4
	cmpq	$0, -8(%rbp)
	jne	.L30
	.loc 1 169 3
	leaq	.LC5(%rip), %rax
	movq	%rax, %rdi
	call	puts@PLT
	.loc 1 170 3
	jmp	.L27
.L33:
	.loc 1 175 9
	movq	-8(%rbp), %rax
	movzbl	25(%rax), %eax
	.loc 1 175 5
	testb	%al, %al
	jne	.L31
	.loc 1 177 10
	movq	-8(%rbp), %rax
	movq	40(%rax), %rax
	.loc 1 177 6
	testq	%rax, %rax
	jne	.L32
	.loc 1 179 5
	movq	-8(%rbp), %rax
	movq	%rax, %rsi
	leaq	.LC6(%rip), %rax
	movq	%rax, %rdi
	movl	$0, %eax
	call	printf@PLT
	.loc 1 180 5
	jmp	.L27
.L32:
	.loc 1 184 5
	movq	-8(%rbp), %rax
	movq	%rax, %rsi
	leaq	.LC7(%rip), %rax
	movq	%rax, %rdi
	movl	$0, %eax
	call	printf@PLT
	.loc 1 186 8
	movq	-8(%rbp), %rax
	movq	40(%rax), %rax
	movq	%rax, -8(%rbp)
	jmp	.L30
.L31:
	.loc 1 192 44
	movq	-8(%rbp), %rax
	movq	(%rax), %rdx
	.loc 1 192 21
	movq	-8(%rbp), %rax
	.loc 1 192 32
	addq	%rdx, %rax
	.loc 1 192 8
	movq	%rax, -8(%rbp)
.L30:
	.loc 1 173 41
	movq	8+halloc_heap_state(%rip), %rax
	.loc 1 173 20
	cmpq	%rax, -8(%rbp)
	jb	.L33
.L27:
	.loc 1 197 1
	leave
	.cfi_def_cfa 7, 8
	ret
	.cfi_endproc
.LFE14:
	.size	print_bin_list, .-print_bin_list
	.globl	bin_list_last
	.type	bin_list_last, @function
bin_list_last:
.LFB15:
	.loc 1 203 1
	.cfi_startproc
	endbr64
	pushq	%rbp
	.cfi_def_cfa_offset 16
	.cfi_offset 6, -16
	movq	%rsp, %rbp
	.cfi_def_cfa_register 6
	subq	$16, %rsp
	.loc 1 204 16
	movl	$0, %eax
	call	first_bin_list
	movq	%rax, -8(%rbp)
	.loc 1 207 5
	movl	$0, %eax
	call	empty_bin_list
	.loc 1 207 4
	testb	%al, %al
	je	.L35
	.loc 1 209 9
	movl	$0, %eax
	jmp	.L36
.L35:
	.loc 1 214 9
	movq	-8(%rbp), %rax
	movzbl	25(%rax), %eax
	.loc 1 214 5
	testb	%al, %al
	jne	.L37
	.loc 1 216 10
	movq	-8(%rbp), %rax
	movq	40(%rax), %rax
	.loc 1 216 6
	testq	%rax, %rax
	jne	.L38
	.loc 1 218 12
	movq	-8(%rbp), %rax
	jmp	.L36
.L38:
	.loc 1 220 8
	movq	-8(%rbp), %rax
	movq	40(%rax), %rax
	movq	%rax, -8(%rbp)
	jmp	.L35
.L37:
	.loc 1 224 44
	movq	-8(%rbp), %rax
	movq	(%rax), %rdx
	.loc 1 224 21
	movq	-8(%rbp), %rax
	.loc 1 224 32
	addq	%rdx, %rax
	.loc 1 224 8
	movq	%rax, -8(%rbp)
	.loc 1 214 5
	jmp	.L35
.L36:
	.loc 1 227 1
	leave
	.cfi_def_cfa 7, 8
	ret
	.cfi_endproc
.LFE15:
	.size	bin_list_last, .-bin_list_last
	.globl	create_heap
	.type	create_heap, @function
create_heap:
.LFB16:
	.loc 1 230 1
	.cfi_startproc
	endbr64
	pushq	%rbp
	.cfi_def_cfa_offset 16
	.cfi_offset 6, -16
	movq	%rsp, %rbp
	.cfi_def_cfa_register 6
	subq	$992, %rsp
	movq	%rdi, -984(%rbp)
	.loc 1 230 1
	movq	%fs:40, %rax
	movq	%rax, -8(%rbp)
	xorl	%eax, %eax
	.loc 1 233 2
	leaq	-976(%rbp), %rax
	addq	$432, %rax
	movl	$4, %edx
	movl	$0, %esi
	movq	%rax, %rdi
	call	memfill@PLT
	.loc 1 234 20
	movl	$0, -544(%rbp)
	.loc 1 236 21
	movq	$0, -552(%rbp)
	.loc 1 237 20
	movq	$0, -976(%rbp)
	.loc 1 238 22
	movq	$0, -968(%rbp)
	.loc 1 239 17
	movq	$0, -960(%rbp)
	.loc 1 240 12
	movq	-984(%rbp), %rax
	movq	%rax, %rdi
	leaq	-976(%rbp), %rax
	movl	$121, %edx
	movq	%rax, %rsi
	movq	%rdx, %rcx
	rep movsq
	.loc 1 241 1
	movq	-8(%rbp), %rax
	subq	%fs:40, %rax
	je	.L42
	call	__stack_chk_fail@PLT
.L42:
	movq	-984(%rbp), %rax
	leave
	.cfi_def_cfa 7, 8
	ret
	.cfi_endproc
.LFE16:
	.size	create_heap, .-create_heap
	.globl	find_space_in_bins
	.type	find_space_in_bins, @function
find_space_in_bins:
.LFB17:
	.loc 1 244 1
	.cfi_startproc
	endbr64
	pushq	%rbp
	.cfi_def_cfa_offset 16
	.cfi_offset 6, -16
	movq	%rsp, %rbp
	.cfi_def_cfa_register 6
	subq	$24, %rsp
	movq	%rdi, -24(%rbp)
	.loc 1 247 5
	movl	$0, %eax
	call	empty_bin_list
	.loc 1 247 4
	testb	%al, %al
	je	.L44
	.loc 1 249 9
	movl	$0, %eax
	jmp	.L45
.L44:
	.loc 1 252 8
	movl	$0, %eax
	call	first_bin_list
	movq	%rax, -8(%rbp)
	.loc 1 255 7
	jmp	.L46
.L51:
	.loc 1 257 9
	movq	-8(%rbp), %rax
	movzbl	25(%rax), %eax
	.loc 1 257 5
	testb	%al, %al
	jne	.L47
	.loc 1 260 11
	movq	-8(%rbp), %rax
	movq	(%rax), %rax
	.loc 1 260 18
	subq	$56, %rax
	.loc 1 260 6
	cmpq	%rax, -24(%rbp)
	ja	.L48
	.loc 1 262 8
	movq	-8(%rbp), %rax
	movq	%rax, %rdi
	call	chunk_end_wilderness_offset
	.loc 1 262 7
	testq	%rax, %rax
	jne	.L49
	.loc 1 264 39
	movq	8+halloc_heap_state(%rip), %rdx
	.loc 1 264 46
	movq	-8(%rbp), %rax
	movq	(%rax), %rax
	.loc 1 264 39
	movl	$57, %ecx
	subq	%rax, %rcx
	leaq	(%rdx,%rcx), %rax
	movq	%rax, 8+halloc_heap_state(%rip)
.L49:
	.loc 1 266 12
	movq	-8(%rbp), %rax
	jmp	.L45
.L48:
	.loc 1 269 10
	movq	-8(%rbp), %rax
	movq	40(%rax), %rax
	.loc 1 269 6
	testq	%rax, %rax
	jne	.L50
	.loc 1 271 11
	movl	$0, %eax
	jmp	.L45
.L50:
	.loc 1 274 8
	movq	-8(%rbp), %rax
	movq	40(%rax), %rax
	movq	%rax, -8(%rbp)
	jmp	.L46
.L47:
	.loc 1 279 44
	movq	-8(%rbp), %rax
	movq	(%rax), %rdx
	.loc 1 279 21
	movq	-8(%rbp), %rax
	.loc 1 279 32
	addq	%rdx, %rax
	.loc 1 279 8
	movq	%rax, -8(%rbp)
.L46:
	.loc 1 255 41
	movq	8+halloc_heap_state(%rip), %rax
	.loc 1 255 20
	cmpq	%rax, -8(%rbp)
	jb	.L51
	.loc 1 282 8
	movl	$0, %eax
.L45:
	.loc 1 283 1
	leave
	.cfi_def_cfa 7, 8
	ret
	.cfi_endproc
.LFE17:
	.size	find_space_in_bins, .-find_space_in_bins
	.globl	find_space
	.type	find_space, @function
find_space:
.LFB18:
	.loc 1 292 1
	.cfi_startproc
	endbr64
	pushq	%rbp
	.cfi_def_cfa_offset 16
	.cfi_offset 6, -16
	movq	%rsp, %rbp
	.cfi_def_cfa_register 6
	subq	$48, %rsp
	movq	%rdi, -40(%rbp)
	movq	%rsi, -48(%rbp)
	.loc 1 298 8
	movq	-40(%rbp), %rax
	addq	$56, %rax
	movq	%rax, -16(%rbp)
	.loc 1 299 25
	movq	-40(%rbp), %rax
	movq	%rax, %rdi
	call	find_space_in_bins
	movq	%rax, -8(%rbp)
	.loc 1 300 8
	movq	-48(%rbp), %rax
	movq	$0, (%rax)
	.loc 1 303 4
	cmpq	$0, -8(%rbp)
	jne	.L53
	.loc 1 305 6
	movq	-16(%rbp), %rax
	movq	%rax, %rdi
	call	extendHeap
	.loc 1 305 5
	cmpq	$2, %rax
	jne	.L54
	.loc 1 307 10
	movl	$0, %eax
	jmp	.L55
.L54:
	.loc 1 310 15
	movq	8+halloc_heap_state(%rip), %rax
	movq	%rax, -24(%rbp)
	.loc 1 311 36
	movq	8+halloc_heap_state(%rip), %rdx
	movq	-16(%rbp), %rax
	addq	%rdx, %rax
	movq	%rax, 8+halloc_heap_state(%rip)
	jmp	.L56
.L53:
	.loc 1 316 15
	movq	-8(%rbp), %rax
	movq	%rax, -24(%rbp)
	.loc 1 317 9
	movq	-48(%rbp), %rax
	movq	-8(%rbp), %rdx
	movq	%rdx, (%rax)
.L56:
	.loc 1 319 9
	movq	-24(%rbp), %rax
.L55:
	.loc 1 320 1
	leave
	.cfi_def_cfa 7, 8
	ret
	.cfi_endproc
.LFE18:
	.size	find_space, .-find_space
	.globl	heap_allocate
	.type	heap_allocate, @function
heap_allocate:
.LFB19:
	.loc 1 324 1
	.cfi_startproc
	endbr64
	pushq	%rbp
	.cfi_def_cfa_offset 16
	.cfi_offset 6, -16
	movq	%rsp, %rbp
	.cfi_def_cfa_register 6
	subq	$96, %rsp
	movq	%rdi, -88(%rbp)
	.loc 1 324 1
	movq	%fs:40, %rax
	movq	%rax, -8(%rbp)
	xorl	%eax, %eax
	.loc 1 330 29
	movl	432+halloc_heap_state(%rip), %eax
	.loc 1 330 4
	cmpl	$1, %eax
	je	.L58
	.loc 1 332 3
	movl	$0, %eax
	call	initHeap
.L58:
	.loc 1 335 16
	leaq	-80(%rbp), %rdx
	movq	-88(%rbp), %rax
	movq	%rdx, %rsi
	movq	%rax, %rdi
	call	find_space
	movq	%rax, -72(%rbp)
	.loc 1 336 4
	cmpq	$0, -72(%rbp)
	jne	.L59
	.loc 1 338 9
	movl	$0, %eax
	jmp	.L64
.L59:
	.loc 1 341 24
	movq	-88(%rbp), %rax
	addq	$56, %rax
	.loc 1 341 18
	movq	%rax, -64(%rbp)
	.loc 1 342 5
	movq	-80(%rbp), %rax
	.loc 1 342 4
	testq	%rax, %rax
	jne	.L61
	.loc 1 346 3
	movq	-72(%rbp), %rax
	movq	%rax, %rdi
	call	add_heap_chunk
	jmp	.L62
.L61:
	.loc 1 350 29
	movq	-80(%rbp), %rax
	movq	(%rax), %rax
	.loc 1 350 19
	movq	%rax, -64(%rbp)
	.loc 1 351 16
	movq	-80(%rbp), %rax
	movq	40(%rax), %rax
	.loc 1 351 7
	testq	%rax, %rax
	je	.L63
	.loc 1 351 33 discriminator 1
	movq	-80(%rbp), %rdx
	.loc 1 351 14 discriminator 1
	movq	-80(%rbp), %rax
	movq	40(%rax), %rax
	.loc 1 351 33 discriminator 1
	movq	48(%rdx), %rdx
	.loc 1 351 23 discriminator 1
	movq	%rdx, 48(%rax)
.L63:
	.loc 1 351 52 discriminator 3
	movq	-80(%rbp), %rax
	movq	48(%rax), %rax
	.loc 1 351 43 discriminator 3
	testq	%rax, %rax
	je	.L62
	.loc 1 351 33 discriminator 4
	movq	-80(%rbp), %rdx
	.loc 1 351 14 discriminator 4
	movq	-80(%rbp), %rax
	movq	48(%rax), %rax
	.loc 1 351 33 discriminator 4
	movq	40(%rdx), %rdx
	.loc 1 351 23 discriminator 4
	movq	%rdx, 40(%rax)
.L62:
	.loc 1 354 18
	movq	$0, -24(%rbp)
	.loc 1 354 17
	movq	$0, -16(%rbp)
	.loc 1 354 19
	movb	$1, -39(%rbp)
	.loc 1 354 51
	movq	$0, -48(%rbp)
	.loc 1 354 77
	movb	$1, -40(%rbp)
	.loc 1 355 24
	movq	$0, -32(%rbp)
	.loc 1 357 2
	leaq	-64(%rbp), %rcx
	movq	-72(%rbp), %rax
	movl	$56, %edx
	movq	%rcx, %rsi
	movq	%rax, %rdi
	call	memcopy@PLT
	.loc 1 359 18
	movq	-72(%rbp), %rax
	.loc 1 359 37
	addq	$56, %rax
.L64:
	.loc 1 360 1 discriminator 1
	movq	-8(%rbp), %rdx
	subq	%fs:40, %rdx
	je	.L65
	.loc 1 360 1 is_stmt 0
	call	__stack_chk_fail@PLT
.L65:
	leave
	.cfi_def_cfa 7, 8
	ret
	.cfi_endproc
.LFE19:
	.size	heap_allocate, .-heap_allocate
	.globl	heap_free
	.type	heap_free, @function
heap_free:
.LFB20:
	.loc 1 363 1 is_stmt 1
	.cfi_startproc
	endbr64
	pushq	%rbp
	.cfi_def_cfa_offset 16
	.cfi_offset 6, -16
	movq	%rsp, %rbp
	.cfi_def_cfa_register 6
	subq	$40, %rsp
	movq	%rdi, -40(%rbp)
	.loc 1 369 29
	movq	-40(%rbp), %rax
	.loc 1 369 40
	subq	$56, %rax
	.loc 1 369 8
	movq	%rax, -16(%rbp)
	.loc 1 370 47
	movq	-16(%rbp), %rax
	movq	(%rax), %rdx
	.loc 1 370 20
	movq	-16(%rbp), %rax
	.loc 1 370 33
	addq	%rdx, %rax
	.loc 1 370 7
	movq	%rax, -8(%rbp)
	.loc 1 372 24
	movq	$0, -24(%rbp)
	.loc 1 374 6
	movl	$0, %eax
	call	empty_bin_list
	.loc 1 374 5
	xorl	$1, %eax
	.loc 1 374 4
	testb	%al, %al
	je	.L67
	.loc 1 376 28
	movl	$0, %eax
	call	bin_list_last
	movq	%rax, -24(%rbp)
	.loc 1 378 29
	movq	-24(%rbp), %rax
	movq	-16(%rbp), %rdx
	movq	%rdx, 40(%rax)
.L67:
	.loc 1 399 14
	movq	-16(%rbp), %rax
	movb	$0, 25(%rax)
	.loc 1 400 12
	movq	-16(%rbp), %rax
	movq	$0, 40(%rax)
	.loc 1 401 12
	movq	-16(%rbp), %rax
	movq	-24(%rbp), %rdx
	movq	%rdx, 48(%rax)
	.loc 1 404 25
	movq	-16(%rbp), %rax
	movq	(%rax), %rdx
	.loc 1 404 18
	movq	-8(%rbp), %rax
	movq	%rdx, 16(%rax)
	.loc 1 405 25
	movq	-16(%rbp), %rax
	movzbl	25(%rax), %edx
	.loc 1 405 18
	movq	-8(%rbp), %rax
	movb	%dl, 24(%rax)
	.loc 1 407 1
	nop
	leave
	.cfi_def_cfa 7, 8
	ret
	.cfi_endproc
.LFE20:
	.size	heap_free, .-heap_free
	.section	.rodata
	.align 8
.LC8:
	.string	"Cannot realloc a lower size chunk"
	.text
	.globl	heap_realloc
	.type	heap_realloc, @function
heap_realloc:
.LFB21:
	.loc 1 412 1
	.cfi_startproc
	endbr64
	pushq	%rbp
	.cfi_def_cfa_offset 16
	.cfi_offset 6, -16
	movq	%rsp, %rbp
	.cfi_def_cfa_register 6
	subq	$112, %rsp
	movq	%rdi, -104(%rbp)
	movq	%rsi, -112(%rbp)
	.loc 1 412 1
	movq	%fs:40, %rax
	movq	%rax, -8(%rbp)
	xorl	%eax, %eax
	.loc 1 413 45
	movq	-104(%rbp), %rax
	.loc 1 413 56
	subq	$56, %rax
	.loc 1 413 10
	movq	%rax, -80(%rbp)
	.loc 1 419 11
	movq	-112(%rbp), %rax
	leaq	56(%rax), %rdx
	.loc 1 419 44
	movq	-80(%rbp), %rax
	movq	(%rax), %rax
	.loc 1 419 4
	cmpq	%rax, %rdx
	jnb	.L69
	.loc 1 421 3
	leaq	.LC8(%rip), %rax
	movq	%rax, %rdi
	call	stringlength@PLT
	movq	%rax, %rdx
	leaq	.LC8(%rip), %rax
	movq	%rax, %rsi
	leaq	464+halloc_heap_state(%rip), %rax
	movq	%rax, %rdi
	call	memcopy@PLT
	.loc 1 422 9
	movl	$0, %eax
	jmp	.L79
.L69:
	.loc 1 426 11
	movq	-80(%rbp), %rax
	movq	%rax, %rdi
	call	chunk_end_wilderness_offset
	movq	%rax, -72(%rbp)
	.loc 1 429 4
	cmpq	$0, -72(%rbp)
	jne	.L71
	.loc 1 431 15
	movq	-80(%rbp), %rax
	movq	%rax, -88(%rbp)
	.loc 1 432 36
	movq	8+halloc_heap_state(%rip), %rdx
	.loc 1 432 78
	movq	-80(%rbp), %rax
	movq	(%rax), %rcx
	.loc 1 432 63
	movq	-112(%rbp), %rax
	subq	%rcx, %rax
	addq	$56, %rax
	.loc 1 432 36
	addq	%rdx, %rax
	movq	%rax, 8+halloc_heap_state(%rip)
	jmp	.L72
.L71:
	.loc 1 437 17
	leaq	-96(%rbp), %rdx
	movq	-112(%rbp), %rax
	movq	%rdx, %rsi
	movq	%rax, %rdi
	call	find_space
	movq	%rax, -88(%rbp)
	.loc 1 439 5
	cmpq	$0, -88(%rbp)
	jne	.L73
	.loc 1 441 10
	movl	$0, %eax
	jmp	.L79
.L73:
	.loc 1 444 3
	movq	-88(%rbp), %rax
	movq	%rax, %rdi
	call	add_heap_chunk
	.loc 1 446 3
	movq	-104(%rbp), %rax
	movq	%rax, %rdi
	call	heap_free
.L72:
	.loc 1 449 26
	movq	-112(%rbp), %rax
	addq	$56, %rax
	.loc 1 449 18
	movq	%rax, -64(%rbp)
	.loc 1 450 5
	movq	-96(%rbp), %rax
	.loc 1 450 4
	testq	%rax, %rax
	jne	.L74
	.loc 1 452 3
	movq	-88(%rbp), %rax
	movq	%rax, %rdi
	call	add_heap_chunk
	jmp	.L75
.L74:
	.loc 1 456 29
	movq	-96(%rbp), %rax
	movq	(%rax), %rax
	.loc 1 456 19
	movq	%rax, -64(%rbp)
	.loc 1 457 16
	movq	-96(%rbp), %rax
	movq	40(%rax), %rax
	.loc 1 457 7
	testq	%rax, %rax
	je	.L76
	.loc 1 457 33 discriminator 1
	movq	-96(%rbp), %rdx
	.loc 1 457 14 discriminator 1
	movq	-96(%rbp), %rax
	movq	40(%rax), %rax
	.loc 1 457 33 discriminator 1
	movq	48(%rdx), %rdx
	.loc 1 457 23 discriminator 1
	movq	%rdx, 48(%rax)
.L76:
	.loc 1 457 52 discriminator 3
	movq	-96(%rbp), %rax
	movq	48(%rax), %rax
	.loc 1 457 43 discriminator 3
	testq	%rax, %rax
	je	.L75
	.loc 1 457 33 discriminator 4
	movq	-96(%rbp), %rdx
	.loc 1 457 14 discriminator 4
	movq	-96(%rbp), %rax
	movq	48(%rax), %rax
	.loc 1 457 33 discriminator 4
	movq	40(%rdx), %rdx
	.loc 1 457 23 discriminator 4
	movq	%rdx, 40(%rax)
.L75:
	.loc 1 459 18
	movq	$0, -24(%rbp)
	.loc 1 459 17
	movq	$0, -16(%rbp)
	.loc 1 459 19
	movb	$1, -39(%rbp)
	.loc 1 459 51
	movq	$0, -48(%rbp)
	.loc 1 459 77
	movb	$1, -40(%rbp)
	.loc 1 461 18
	movq	-80(%rbp), %rax
	movq	32(%rax), %rax
	.loc 1 461 4
	testq	%rax, %rax
	jne	.L77
	.loc 1 463 25
	movq	-80(%rbp), %rax
	movq	%rax, -32(%rbp)
	jmp	.L78
.L77:
	.loc 1 467 40
	movq	-80(%rbp), %rax
	movq	32(%rax), %rax
	.loc 1 467 25
	movq	%rax, -32(%rbp)
.L78:
	.loc 1 469 2
	leaq	-64(%rbp), %rcx
	movq	-88(%rbp), %rax
	movl	$56, %edx
	movq	%rcx, %rsi
	movq	%rax, %rdi
	call	memcopy@PLT
	.loc 1 470 98
	movq	-80(%rbp), %rax
	movq	(%rax), %rax
	.loc 1 470 2
	leaq	-56(%rax), %rdx
	.loc 1 470 19
	movq	-88(%rbp), %rax
	.loc 1 470 45
	addq	$56, %rax
	.loc 1 470 2
	movq	%rax, %rcx
	movq	-104(%rbp), %rax
	movq	%rax, %rsi
	movq	%rcx, %rdi
	call	memcopy@PLT
	.loc 1 472 18
	movq	-88(%rbp), %rax
	.loc 1 472 44
	addq	$56, %rax
.L79:
	.loc 1 473 1 discriminator 1
	movq	-8(%rbp), %rdx
	subq	%fs:40, %rdx
	je	.L80
	.loc 1 473 1 is_stmt 0
	call	__stack_chk_fail@PLT
.L80:
	leave
	.cfi_def_cfa 7, 8
	ret
	.cfi_endproc
.LFE21:
	.size	heap_realloc, .-heap_realloc
.Letext0:
	.file 2 "heap/memory.h"
	.file 3 "/usr/include/x86_64-linux-gnu/bits/types.h"
	.file 4 "/usr/lib/gcc/x86_64-linux-gnu/11/include/stddef.h"
	.file 5 "/usr/include/x86_64-linux-gnu/bits/types/struct_FILE.h"
	.file 6 "/usr/include/x86_64-linux-gnu/bits/types/FILE.h"
	.file 7 "heap/moremem.h"
	.file 8 "heap/heap.h"
	.file 9 "/usr/include/stdio.h"
	.file 10 "/usr/include/stdlib.h"
	.section	.note.GNU-stack,"",@progbits
	.section	.note.gnu.property,"a"
	.align 8
	.long	1f - 0f
	.long	4f - 1f
	.long	5
0:
	.string	"GNU"
1:
	.align 8
	.long	0xc0000002
	.long	3f - 2f
2:
	.long	0x3
3:
	.align 8
4:
