	.file	"moremem.c"
	.text
.Ltext0:
	.file 0 "/home/user/Lab/programming/heap" "heap/moremem.c"
	.globl	mmem_createMemorySpace
	.type	mmem_createMemorySpace, @function
mmem_createMemorySpace:
.LFB0:
	.file 1 "heap/moremem.c"
	.loc 1 6 1
	.cfi_startproc
	endbr64
	pushq	%rbp
	.cfi_def_cfa_offset 16
	.cfi_offset 6, -16
	movq	%rsp, %rbp
	.cfi_def_cfa_register 6
	subq	$48, %rsp
	movq	%rdi, -40(%rbp)
	.loc 1 10 18
	movl	$0, %r9d
	movl	$0, %r8d
	movl	$34, %ecx
	movl	$7, %edx
	movl	$4096, %esi
	movl	$0, %edi
	call	mmap@PLT
	.loc 1 10 16
	movq	%rax, -24(%rbp)
	.loc 1 12 21
	movq	$0, -8(%rbp)
	.loc 1 13 20
	movq	$4096, -16(%rbp)
	.loc 1 15 14
	movq	-24(%rbp), %rax
	.loc 1 15 7
	cmpq	$-1, %rax
	jne	.L2
	.loc 1 17 22
	movl	$2, -32(%rbp)
	jmp	.L3
.L2:
	.loc 1 22 22
	movl	$1, -32(%rbp)
.L3:
	.loc 1 24 12
	movq	-40(%rbp), %rcx
	movq	-32(%rbp), %rax
	movq	-24(%rbp), %rdx
	movq	%rax, (%rcx)
	movq	%rdx, 8(%rcx)
	movq	-16(%rbp), %rax
	movq	-8(%rbp), %rdx
	movq	%rax, 16(%rcx)
	movq	%rdx, 24(%rcx)
	.loc 1 25 1
	movq	-40(%rbp), %rax
	leave
	.cfi_def_cfa 7, 8
	ret
	.cfi_endproc
.LFE0:
	.size	mmem_createMemorySpace, .-mmem_createMemorySpace
	.globl	mmem_remap
	.type	mmem_remap, @function
mmem_remap:
.LFB1:
	.loc 1 28 1
	.cfi_startproc
	endbr64
	pushq	%rbp
	.cfi_def_cfa_offset 16
	.cfi_offset 6, -16
	movq	%rsp, %rbp
	.cfi_def_cfa_register 6
	subq	$48, %rsp
	movq	%rdi, -40(%rbp)
	movq	%rsi, -48(%rbp)
	.loc 1 35 12
	movq	-40(%rbp), %rax
	movq	8(%rax), %rax
	movq	%rax, -24(%rbp)
	.loc 1 38 15
	movq	-40(%rbp), %rax
	movq	16(%rax), %rax
	movl	$0, %r9d
	movl	$0, %r8d
	movl	$34, %ecx
	movl	$7, %edx
	movq	%rax, %rsi
	movl	$0, %edi
	call	mmap@PLT
	movq	%rax, -16(%rbp)
	.loc 1 39 7
	cmpq	$-1, -16(%rbp)
	jne	.L6
	.loc 1 41 16
	movl	$2, %eax
	jmp	.L7
.L6:
	.loc 1 44 5
	movq	-40(%rbp), %rax
	movq	16(%rax), %rdx
	movq	-40(%rbp), %rax
	movq	8(%rax), %rcx
	movq	-16(%rbp), %rax
	movq	%rcx, %rsi
	movq	%rax, %rdi
	call	memcopy@PLT
	.loc 1 47 8
	movq	-40(%rbp), %rax
	movq	16(%rax), %rdx
	movq	-40(%rbp), %rax
	movq	8(%rax), %rax
	movq	%rdx, %rsi
	movq	%rax, %rdi
	call	munmap@PLT
	.loc 1 47 7
	testl	%eax, %eax
	je	.L8
	.loc 1 49 16
	movl	$2, %eax
	jmp	.L7
.L8:
	.loc 1 52 14
	movq	-48(%rbp), %rax
	movl	$0, %r9d
	movl	$0, %r8d
	movl	$34, %ecx
	movl	$7, %edx
	movq	%rax, %rsi
	movl	$0, %edi
	call	mmap@PLT
	movq	%rax, -8(%rbp)
	.loc 1 54 7
	cmpq	$-1, -8(%rbp)
	jne	.L9
	.loc 1 56 16
	movl	$2, %eax
	jmp	.L7
.L9:
	.loc 1 58 17
	movq	-40(%rbp), %rax
	movq	-8(%rbp), %rdx
	movq	%rdx, 8(%rax)
	.loc 1 61 5
	movq	-40(%rbp), %rax
	movq	16(%rax), %rdx
	movq	-40(%rbp), %rax
	movq	8(%rax), %rax
	movq	-16(%rbp), %rcx
	movq	%rcx, %rsi
	movq	%rax, %rdi
	call	memcopy@PLT
	.loc 1 64 8
	movq	-40(%rbp), %rax
	movq	16(%rax), %rdx
	movq	-16(%rbp), %rax
	movq	%rdx, %rsi
	movq	%rax, %rdi
	call	munmap@PLT
	.loc 1 64 7
	testl	%eax, %eax
	je	.L10
	.loc 1 66 16
	movl	$2, %eax
	jmp	.L7
.L10:
	.loc 1 68 12
	movl	$1, %eax
.L7:
	.loc 1 69 1
	leave
	.cfi_def_cfa 7, 8
	ret
	.cfi_endproc
.LFE1:
	.size	mmem_remap, .-mmem_remap
	.globl	mmem_extend
	.type	mmem_extend, @function
mmem_extend:
.LFB2:
	.loc 1 72 1
	.cfi_startproc
	endbr64
	pushq	%rbp
	.cfi_def_cfa_offset 16
	.cfi_offset 6, -16
	movq	%rsp, %rbp
	.cfi_def_cfa_register 6
	subq	$32, %rsp
	movq	%rdi, -24(%rbp)
	movq	%rsi, -32(%rbp)
	.loc 1 77 25
	movq	-24(%rbp), %rax
	movq	24(%rax), %rdx
	.loc 1 77 17
	movq	-32(%rbp), %rax
	addq	%rdx, %rax
	movq	%rax, -16(%rbp)
	.loc 1 79 14
	movq	-24(%rbp), %rax
	movl	(%rax), %eax
	.loc 1 79 7
	cmpl	$1, %eax
	jne	.L12
	.loc 1 81 26
	movq	-24(%rbp), %rax
	movq	-16(%rbp), %rdx
	movq	%rdx, 24(%rax)
	.loc 1 83 32
	movq	-24(%rbp), %rax
	movq	16(%rax), %rax
	.loc 1 83 11
	cmpq	%rax, -16(%rbp)
	jnb	.L13
	.loc 1 85 20
	movl	$0, %eax
	jmp	.L14
.L13:
	.loc 1 88 38
	movq	-24(%rbp), %rax
	movq	16(%rax), %rax
	.loc 1 88 25
	testq	%rax, %rax
	js	.L15
	pxor	%xmm0, %xmm0
	cvtsi2ssq	%rax, %xmm0
	jmp	.L16
.L15:
	movq	%rax, %rdx
	shrq	%rdx
	andl	$1, %eax
	orq	%rax, %rdx
	pxor	%xmm0, %xmm0
	cvtsi2ssq	%rdx, %xmm0
	addss	%xmm0, %xmm0
.L16:
	.loc 1 88 18
	comiss	.LC0(%rip), %xmm0
	jnb	.L17
	cvttss2siq	%xmm0, %rax
	jmp	.L18
.L17:
	movss	.LC0(%rip), %xmm1
	subss	%xmm1, %xmm0
	cvttss2siq	%xmm0, %rax
	movabsq	$-9223372036854775808, %rdx
	xorq	%rdx, %rax
.L18:
	.loc 1 88 48
	testq	%rax, %rax
	js	.L19
	pxor	%xmm0, %xmm0
	cvtsi2ssq	%rax, %xmm0
	jmp	.L20
.L19:
	movq	%rax, %rdx
	shrq	%rdx
	andl	$1, %eax
	orq	%rax, %rdx
	pxor	%xmm0, %xmm0
	cvtsi2ssq	%rdx, %xmm0
	addss	%xmm0, %xmm0
.L20:
	movss	.LC1(%rip), %xmm2
	movaps	%xmm0, %xmm1
	divss	%xmm2, %xmm1
	.loc 1 88 64
	movss	.LC2(%rip), %xmm0
	addss	%xmm1, %xmm0
	.loc 1 88 15
	comiss	.LC0(%rip), %xmm0
	jnb	.L21
	cvttss2siq	%xmm0, %rax
	movq	%rax, -8(%rbp)
	jmp	.L22
.L21:
	movss	.LC0(%rip), %xmm1
	subss	%xmm1, %xmm0
	cvttss2siq	%xmm0, %rax
	movq	%rax, -8(%rbp)
	movabsq	$-9223372036854775808, %rax
	xorq	%rax, -8(%rbp)
.L22:
	movq	-8(%rbp), %rax
	movq	%rax, -8(%rbp)
	.loc 1 91 41
	movq	-24(%rbp), %rax
	movq	16(%rax), %rdx
	.loc 1 91 60
	movq	-8(%rbp), %rax
	salq	$12, %rax
	.loc 1 91 16
	addq	%rax, %rdx
	movq	-24(%rbp), %rax
	movq	%rdx, %rsi
	movq	%rax, %rdi
	call	mmem_remap
	jmp	.L14
.L12:
	.loc 1 96 16
	movl	$2, %eax
.L14:
	.loc 1 99 1
	leave
	.cfi_def_cfa 7, 8
	ret
	.cfi_endproc
.LFE2:
	.size	mmem_extend, .-mmem_extend
	.globl	mmem_uncreate
	.type	mmem_uncreate, @function
mmem_uncreate:
.LFB3:
	.loc 1 102 1
	.cfi_startproc
	endbr64
	pushq	%rbp
	.cfi_def_cfa_offset 16
	.cfi_offset 6, -16
	movq	%rsp, %rbp
	.cfi_def_cfa_register 6
	subq	$16, %rsp
	movq	%rdi, -8(%rbp)
	.loc 1 104 14
	movq	-8(%rbp), %rax
	movl	(%rax), %eax
	.loc 1 104 7
	cmpl	$1, %eax
	jne	.L24
	.loc 1 106 12
	movq	-8(%rbp), %rax
	movq	16(%rax), %rdx
	movq	-8(%rbp), %rax
	movq	8(%rax), %rax
	movq	%rdx, %rsi
	movq	%rax, %rdi
	call	munmap@PLT
	.loc 1 106 11
	testl	%eax, %eax
	je	.L25
	.loc 1 109 20
	movl	$0, %eax
	jmp	.L26
.L25:
	.loc 1 113 23
	movq	-8(%rbp), %rax
	movl	$0, (%rax)
	.loc 1 114 16
	movl	$2, %eax
	jmp	.L26
.L24:
	.loc 1 119 16
	movl	$1, %eax
.L26:
	.loc 1 122 1
	leave
	.cfi_def_cfa 7, 8
	ret
	.cfi_endproc
.LFE3:
	.size	mmem_uncreate, .-mmem_uncreate
	.section	.rodata
	.align 4
.LC0:
	.long	1593835520
	.align 4
.LC1:
	.long	1166016512
	.align 4
.LC2:
	.long	1065353216
	.text
.Letext0:
	.file 2 "heap/memory.h"
	.file 3 "/usr/include/x86_64-linux-gnu/bits/types.h"
	.file 4 "/usr/lib/gcc/x86_64-linux-gnu/11/include/stddef.h"
	.file 5 "heap/moremem.h"
	.file 6 "/usr/include/x86_64-linux-gnu/sys/mman.h"
	.section	.note.GNU-stack,"",@progbits
	.section	.note.gnu.property,"a"
	.align 8
	.long	1f - 0f
	.long	4f - 1f
	.long	5
0:
	.string	"GNU"
1:
	.align 8
	.long	0xc0000002
	.long	3f - 2f
2:
	.long	0x3
3:
	.align 8
4:
